target datalayout = "e-m:e-p270:32:32-p271:32:32-p272:64:64-i64:64-i128:128-f80:128-n8:16:32:64-S128"
target triple = "x86_64-pc-linux-gnu"

%struct.expert_field = type { i32, i32 }
%struct._c_pkt_data = type { ptr, ptr, ptr, ptr, ptr, ptr, %struct._c_header }
%struct._c_header = type { i64, i64, i32, i16, i16, %struct._c_node_name }
%struct._c_node_name = type { ptr, ptr, i64, i32 }
%struct._c_encoded = type { i8, i8, i32, i32 }

@hf_encoded_ver = internal global i32 0, align 4
@hf_encoded_compat = internal global i32 0, align 4
@hf_encoded_size = internal global i32 0, align 4
@ei_ver_tooold = internal global %struct.expert_field zeroinitializer, align 4
@ei_ver_toonew = internal global %struct.expert_field zeroinitializer, align 4
@.str.1586 = private unnamed_addr constant [30 x i8] c"epan/dissectors/packet-ceph.c\00", align 1
@.str.1587 = private unnamed_addr constant [34 x i8] c"%s:%u: failed assertion \22%s\22 (%s)\00", align 1
@.str.1619 = private unnamed_addr constant [4 x i8] c"enc\00", align 1
@.str.1620 = private unnamed_addr constant [36 x i8] c"enc out parameter must be non-null.\00", align 1
@.str.1621 = private unnamed_addr constant [48 x i8] c"%s:%u: failed assertion min <= max (%ld <= %ld)\00", align 1
@.str.1622 = private unnamed_addr constant [61 x i8] c"Version %d is lower then the minimum supported version (%d).\00", align 1
@.str.1623 = private unnamed_addr constant [62 x i8] c"Version %d is higher then the maximum supported version (%d).\00", align 1

; Function Attrs: null_pointer_is_valid sspstrong uwtable
define internal i32 @c_warn_ver(ptr noundef %0, i32 noundef %1, i32 noundef %2, i32 noundef %3, ptr noundef %4) #0 {
  %6 = alloca i32, align 4
  %7 = alloca ptr, align 8
  %8 = alloca i32, align 4
  %9 = alloca i32, align 4
  %10 = alloca i32, align 4
  %11 = alloca ptr, align 8
  store ptr %0, ptr %7, align 8
  store i32 %1, ptr %8, align 4
  store i32 %2, ptr %9, align 4
  store i32 %3, ptr %10, align 4
  store ptr %4, ptr %11, align 8
  %12 = load i32, ptr %9, align 4
  %13 = load i32, ptr %10, align 4
  %14 = icmp sle i32 %12, %13
  br i1 %14, label %15, label %16

15:                                               ; preds = %5
  br label %22

16:                                               ; preds = %5
  %17 = load i32, ptr %9, align 4
  %18 = sext i32 %17 to i64
  %19 = load i32, ptr %10, align 4
  %20 = sext i32 %19 to i64
  call void (ptr, ...) @proto_report_dissector_bug(ptr noundef @.str.1621, ptr noundef @.str.1586, i32 noundef 1743, i64 noundef %18, i64 noundef %20) #15
  unreachable

21:                                               ; No predecessors!
  br label %22

22:                                               ; preds = %21, %15
  %23 = load i32, ptr %8, align 4
  %24 = load i32, ptr %9, align 4
  %25 = icmp slt i32 %23, %24
  br i1 %25, label %26, label %34

26:                                               ; preds = %22
  %27 = load ptr, ptr %11, align 8
  %28 = getelementptr inbounds nuw %struct._c_pkt_data, ptr %27, i32 0, i32 5
  %29 = load ptr, ptr %28, align 8
  %30 = load ptr, ptr %7, align 8
  %31 = load i32, ptr %8, align 4
  %32 = load i32, ptr %9, align 4
  %33 = call ptr (ptr, ptr, ptr, ptr, ...) @expert_add_info_format(ptr noundef %29, ptr noundef %30, ptr noundef @ei_ver_tooold, ptr noundef @.str.1622, i32 noundef %31, i32 noundef %32)
  store i32 -1, ptr %6, align 4
  br label %47

34:                                               ; preds = %22
  %35 = load i32, ptr %8, align 4
  %36 = load i32, ptr %10, align 4
  %37 = icmp sgt i32 %35, %36
  br i1 %37, label %38, label %46

38:                                               ; preds = %34
  %39 = load ptr, ptr %11, align 8
  %40 = getelementptr inbounds nuw %struct._c_pkt_data, ptr %39, i32 0, i32 5
  %41 = load ptr, ptr %40, align 8
  %42 = load ptr, ptr %7, align 8
  %43 = load i32, ptr %8, align 4
  %44 = load i32, ptr %10, align 4
  %45 = call ptr (ptr, ptr, ptr, ptr, ...) @expert_add_info_format(ptr noundef %41, ptr noundef %42, ptr noundef @ei_ver_toonew, ptr noundef @.str.1623, i32 noundef %43, i32 noundef %44)
  store i32 1, ptr %6, align 4
  br label %47

46:                                               ; preds = %34
  store i32 0, ptr %6, align 4
  br label %47

47:                                               ; preds = %46, %38, %26
  %48 = load i32, ptr %6, align 4
  ret i32 %48
}

; Function Attrs: null_pointer_is_valid sspstrong uwtable
define internal i32 @c_dissect_encoded(ptr noundef %0, ptr noundef %1, i8 noundef zeroext %2, i8 noundef zeroext %3, ptr noundef %4, i32 noundef %5, ptr noundef %6) #0 {
  %8 = alloca ptr, align 8
  %9 = alloca ptr, align 8
  %10 = alloca i8, align 1
  %11 = alloca i8, align 1
  %12 = alloca ptr, align 8
  %13 = alloca i32, align 4
  %14 = alloca ptr, align 8
  %15 = alloca ptr, align 8
  store ptr %0, ptr %8, align 8
  store ptr %1, ptr %9, align 8
  store i8 %2, ptr %10, align 1
  store i8 %3, ptr %11, align 1
  store ptr %4, ptr %12, align 8
  store i32 %5, ptr %13, align 4
  store ptr %6, ptr %14, align 8
  call void @llvm.lifetime.start.p0(i64 8, ptr %15) #14
  %16 = load ptr, ptr %9, align 8
  %17 = icmp ne ptr %16, null
  br i1 %17, label %18, label %19

18:                                               ; preds = %7
  br label %21

19:                                               ; preds = %7
  call void (ptr, ...) @proto_report_dissector_bug(ptr noundef @.str.1587, ptr noundef @.str.1586, i32 noundef 2273, ptr noundef @.str.1619, ptr noundef @.str.1620) #15
  unreachable

20:                                               ; No predecessors!
  br label %21

21:                                               ; preds = %20, %18
  %22 = load ptr, ptr %12, align 8
  %23 = load i32, ptr %13, align 4
  %24 = call zeroext i8 @tvb_get_uint8(ptr noundef %22, i32 noundef %23)
  %25 = load ptr, ptr %9, align 8
  %26 = getelementptr inbounds nuw %struct._c_encoded, ptr %25, i32 0, i32 0
  store i8 %24, ptr %26, align 4
  %27 = load ptr, ptr %8, align 8
  %28 = load i32, ptr @hf_encoded_ver, align 4
  %29 = load ptr, ptr %12, align 8
  %30 = load i32, ptr %13, align 4
  %31 = add i32 %30, 1
  store i32 %31, ptr %13, align 4
  %32 = call ptr @proto_tree_add_item(ptr noundef %27, i32 noundef %28, ptr noundef %29, i32 noundef %30, i32 noundef 1, i32 noundef -2147483648)
  store ptr %32, ptr %15, align 8
  %33 = load ptr, ptr %15, align 8
  %34 = load ptr, ptr %9, align 8
  %35 = getelementptr inbounds nuw %struct._c_encoded, ptr %34, i32 0, i32 0
  %36 = load i8, ptr %35, align 4
  %37 = zext i8 %36 to i32
  %38 = load i8, ptr %10, align 1
  %39 = zext i8 %38 to i32
  %40 = load i8, ptr %11, align 1
  %41 = zext i8 %40 to i32
  %42 = load ptr, ptr %14, align 8
  %43 = call i32 @c_warn_ver(ptr noundef %33, i32 noundef %37, i32 noundef %39, i32 noundef %41, ptr noundef %42)
  %44 = load ptr, ptr %12, align 8
  %45 = load i32, ptr %13, align 4
  %46 = call zeroext i8 @tvb_get_uint8(ptr noundef %44, i32 noundef %45)
  %47 = load ptr, ptr %9, align 8
  %48 = getelementptr inbounds nuw %struct._c_encoded, ptr %47, i32 0, i32 1
  store i8 %46, ptr %48, align 1
  %49 = load ptr, ptr %8, align 8
  %50 = load i32, ptr @hf_encoded_compat, align 4
  %51 = load ptr, ptr %12, align 8
  %52 = load i32, ptr %13, align 4
  %53 = add i32 %52, 1
  store i32 %53, ptr %13, align 4
  %54 = call ptr @proto_tree_add_item(ptr noundef %49, i32 noundef %50, ptr noundef %51, i32 noundef %52, i32 noundef 1, i32 noundef -2147483648)
  %55 = load ptr, ptr %12, align 8
  %56 = load i32, ptr %13, align 4
  %57 = call i32 @tvb_get_letohl(ptr noundef %55, i32 noundef %56)
  %58 = load ptr, ptr %9, align 8
  %59 = getelementptr inbounds nuw %struct._c_encoded, ptr %58, i32 0, i32 2
  store i32 %57, ptr %59, align 4
  %60 = load ptr, ptr %8, align 8
  %61 = load i32, ptr @hf_encoded_size, align 4
  %62 = load ptr, ptr %12, align 8
  %63 = load i32, ptr %13, align 4
  %64 = call ptr @proto_tree_add_item(ptr noundef %60, i32 noundef %61, ptr noundef %62, i32 noundef %63, i32 noundef 4, i32 noundef -2147483648)
  %65 = load i32, ptr %13, align 4
  %66 = add i32 %65, 4
  store i32 %66, ptr %13, align 4
  %67 = load i32, ptr %13, align 4
  %68 = load ptr, ptr %9, align 8
  %69 = getelementptr inbounds nuw %struct._c_encoded, ptr %68, i32 0, i32 2
  %70 = load i32, ptr %69, align 4
  %71 = add i32 %67, %70
  %72 = load ptr, ptr %9, align 8
  %73 = getelementptr inbounds nuw %struct._c_encoded, ptr %72, i32 0, i32 3
  store i32 %71, ptr %73, align 4
  %74 = load i32, ptr %13, align 4
  call void @llvm.lifetime.end.p0(i64 8, ptr %15) #14
  ret i32 %74
}