; Function Attrs: null_pointer_is_valid sspstrong uwtable
define internal fastcc noundef i32 @c_dissect_encoded(ptr noundef %0, ptr noundef captures(address_is_null) %1, i8 noundef zeroext range(i8 1, 9) %2, i8 noundef zeroext range(i8 1, 18) %3, ptr noundef %4, i32 noundef %5, ptr noundef readonly captures(none) %6) unnamed_addr #0 {
  %.not = icmp eq ptr %1, null
  br i1 %.not, label %8, label %9

8:                                                ; preds = %7
  tail call void (ptr, ...) @proto_report_dissector_bug(ptr noundef nonnull @.str.1587, ptr noundef nonnull @.str.1586, i32 noundef 2273, ptr noundef nonnull @.str.1619, ptr noundef nonnull @.str.1620) #11
  unreachable

9:                                                ; preds = %7
  %10 = tail call zeroext i8 @tvb_get_uint8(ptr noundef %4, i32 noundef %5)
  store i8 %10, ptr %1, align 4
  %11 = load i32, ptr @hf_encoded_ver, align 4
  %12 = tail call ptr @proto_tree_add_item(ptr noundef %0, i32 noundef %11, ptr noundef %4, i32 noundef %5, i32 noundef 1, i32 noundef -2147483648)
  %13 = load i8, ptr %1, align 4
  %14 = zext i8 %13 to i32
  %15 = zext nneg i8 %2 to i32
  %16 = zext nneg i8 %3 to i32
  %.not.i = icmp samesign ugt i8 %2, %3
  br i1 %.not.i, label %17, label %20

17:                                               ; preds = %9
  %18 = zext nneg i8 %2 to i64
  %19 = zext nneg i8 %3 to i64
  tail call void (ptr, ...) @proto_report_dissector_bug(ptr noundef nonnull @.str.1621, ptr noundef nonnull @.str.1586, i32 noundef 1743, i64 noundef %18, i64 noundef %19) #11
  unreachable

20:                                               ; preds = %9
  %21 = icmp ult i8 %13, %2
  br i1 %21, label %22, label %26

22:                                               ; preds = %20
  %23 = getelementptr inbounds nuw i8, ptr %6, i64 40
  %24 = load ptr, ptr %23, align 8
  %25 = tail call ptr (ptr, ptr, ptr, ptr, ...) @expert_add_info_format(ptr noundef %24, ptr noundef %12, ptr noundef nonnull @ei_ver_tooold, ptr noundef nonnull @.str.1622, i32 noundef range(i32 0, 256) %14, i32 noundef range(i32 1, 9) %15)
  br label %c_warn_ver.exit

26:                                               ; preds = %20
  %27 = icmp ugt i8 %13, %3
  br i1 %27, label %28, label %c_warn_ver.exit

28:                                               ; preds = %26
  %29 = getelementptr inbounds nuw i8, ptr %6, i64 40
  %30 = load ptr, ptr %29, align 8
  %31 = tail call ptr (ptr, ptr, ptr, ptr, ...) @expert_add_info_format(ptr noundef %30, ptr noundef %12, ptr noundef nonnull @ei_ver_toonew, ptr noundef nonnull @.str.1623, i32 noundef range(i32 0, 256) %14, i32 noundef range(i32 1, 18) %16)
  br label %c_warn_ver.exit

c_warn_ver.exit:                                  ; preds = %22, %26, %28
  %32 = add i32 %5, 1
  %33 = tail call zeroext i8 @tvb_get_uint8(ptr noundef %4, i32 noundef %32)
  %34 = getelementptr inbounds nuw i8, ptr %1, i64 1
  store i8 %33, ptr %34, align 1
  %35 = load i32, ptr @hf_encoded_compat, align 4
  %36 = add i32 %5, 2
  %37 = tail call ptr @proto_tree_add_item(ptr noundef %0, i32 noundef %35, ptr noundef %4, i32 noundef %32, i32 noundef 1, i32 noundef -2147483648)
  %38 = tail call i32 @tvb_get_letohl(ptr noundef %4, i32 noundef %36)
  %39 = getelementptr inbounds nuw i8, ptr %1, i64 4
  store i32 %38, ptr %39, align 4
  %40 = load i32, ptr @hf_encoded_size, align 4
  %41 = tail call ptr @proto_tree_add_item(ptr noundef %0, i32 noundef %40, ptr noundef %4, i32 noundef %36, i32 noundef 4, i32 noundef -2147483648)
  %42 = add i32 %5, 6
  %43 = load i32, ptr %39, align 4
  %44 = add i32 %43, %42
  %45 = getelementptr inbounds nuw i8, ptr %1, i64 8
  store i32 %44, ptr %45, align 4
  ret i32 %42
}